target datalayout = "e-m:e-p270:32:32-p271:32:32-p272:64:64-i64:64-i128:128-f80:128-n8:16:32:64-S128"
target triple = "x86_64-pc-linux-gnu"

%struct.ref = type { ptr, %struct.object_id, %struct.object_id, %struct.object_id, ptr, ptr, i8, i32, i32, i32, ptr, ptr, ptr, [0 x i8] }
%struct.object_id = type { [32 x i8], i32 }

@.str.21 = private unnamed_addr constant [22 x i8] c"no such remote ref %s\00", align 1
@.str.22 = private unnamed_addr constant [57 x i8] c"Server does not allow request for unadvertised object %s\00", align 1
@.str.31 = private unnamed_addr constant [1 x i8] zeroinitializer, align 1
@git_gettext_enabled = external global i32, align 4

; Function Attrs: inlinehint nounwind uwtable
define internal i32 @const_error() #5 {
  ret i32 -1
}

; Function Attrs: inlinehint nounwind uwtable
define internal ptr @_(ptr noundef %0) #5 {
  %2 = alloca ptr, align 8
  %3 = alloca ptr, align 8
  store ptr %0, ptr %3, align 8, !tbaa !4
  %4 = load ptr, ptr %3, align 8, !tbaa !4
  %5 = load i8, ptr %4, align 1, !tbaa !16
  %6 = icmp ne i8 %5, 0
  br i1 %6, label %8, label %7

7:                                                ; preds = %1
  store ptr @.str.31, ptr %2, align 8
  br label %16

8:                                                ; preds = %1
  %9 = load i32, ptr @git_gettext_enabled, align 4, !tbaa !19
  %10 = icmp ne i32 %9, 0
  br i1 %10, label %13, label %11

11:                                               ; preds = %8
  %12 = load ptr, ptr %3, align 8, !tbaa !4
  store ptr %12, ptr %2, align 8
  br label %16

13:                                               ; preds = %8
  %14 = load ptr, ptr %3, align 8, !tbaa !4
  %15 = call ptr @dcgettext(ptr noundef null, ptr noundef %14, i32 noundef 5) #11
  store ptr %15, ptr %2, align 8
  br label %16

16:                                               ; preds = %13, %11, %7
  %17 = load ptr, ptr %2, align 8
  ret ptr %17
}

; Function Attrs: nounwind uwtable
define dso_local i32 @report_unmatched_refs(ptr noundef %0, i32 noundef %1) #0 {
  %3 = alloca ptr, align 8
  %4 = alloca i32, align 4
  %5 = alloca i32, align 4
  %6 = alloca i32, align 4
  store ptr %0, ptr %3, align 8, !tbaa !27
  store i32 %1, ptr %4, align 4, !tbaa !19
  call void @llvm.lifetime.start.p0(i64 4, ptr %5) #11
  call void @llvm.lifetime.start.p0(i64 4, ptr %6) #11
  store i32 0, ptr %6, align 4, !tbaa !19
  store i32 0, ptr %5, align 4, !tbaa !19
  br label %7

7:                                                ; preds = %51, %2
  %8 = load i32, ptr %5, align 4, !tbaa !19
  %9 = load i32, ptr %4, align 4, !tbaa !19
  %10 = icmp slt i32 %8, %9
  br i1 %10, label %11, label %54

11:                                               ; preds = %7
  %12 = load ptr, ptr %3, align 8, !tbaa !27
  %13 = load i32, ptr %5, align 4, !tbaa !19
  %14 = sext i32 %13 to i64
  %15 = getelementptr inbounds ptr, ptr %12, i64 %14
  %16 = load ptr, ptr %15, align 8, !tbaa !25
  %17 = icmp ne ptr %16, null
  br i1 %17, label %19, label %18

18:                                               ; preds = %11
  br label %51

19:                                               ; preds = %11
  %20 = load ptr, ptr %3, align 8, !tbaa !27
  %21 = load i32, ptr %5, align 4, !tbaa !19
  %22 = sext i32 %21 to i64
  %23 = getelementptr inbounds ptr, ptr %20, i64 %22
  %24 = load ptr, ptr %23, align 8, !tbaa !25
  %25 = getelementptr inbounds nuw %struct.ref, ptr %24, i32 0, i32 7
  %26 = load i32, ptr %25, align 4, !tbaa !19
  switch i32 %26, label %50 [
    i32 1, label %27
    i32 0, label %28
    i32 2, label %39
  ]

27:                                               ; preds = %19
  br label %51

28:                                               ; preds = %19
  %29 = call ptr @_(ptr noundef @.str.21)
  %30 = load ptr, ptr %3, align 8, !tbaa !27
  %31 = load i32, ptr %5, align 4, !tbaa !19
  %32 = sext i32 %31 to i64
  %33 = getelementptr inbounds ptr, ptr %30, i64 %32
  %34 = load ptr, ptr %33, align 8, !tbaa !25
  %35 = getelementptr inbounds nuw %struct.ref, ptr %34, i32 0, i32 13
  %36 = getelementptr inbounds [0 x i8], ptr %35, i64 0, i64 0
  %37 = call i32 (ptr, ...) @error(ptr noundef %29, ptr noundef %36)
  %38 = call i32 @const_error()
  br label %50

39:                                               ; preds = %19
  %40 = call ptr @_(ptr noundef @.str.22)
  %41 = load ptr, ptr %3, align 8, !tbaa !27
  %42 = load i32, ptr %5, align 4, !tbaa !19
  %43 = sext i32 %42 to i64
  %44 = getelementptr inbounds ptr, ptr %41, i64 %43
  %45 = load ptr, ptr %44, align 8, !tbaa !25
  %46 = getelementptr inbounds nuw %struct.ref, ptr %45, i32 0, i32 13
  %47 = getelementptr inbounds [0 x i8], ptr %46, i64 0, i64 0
  %48 = call i32 (ptr, ...) @error(ptr noundef %40, ptr noundef %47)
  %49 = call i32 @const_error()
  br label %50

50:                                               ; preds = %19, %39, %28
  store i32 1, ptr %6, align 4, !tbaa !19
  br label %51

51:                                               ; preds = %50, %27, %18
  %52 = load i32, ptr %5, align 4, !tbaa !19
  %53 = add nsw i32 %52, 1
  store i32 %53, ptr %5, align 4, !tbaa !19
  br label %7, !llvm.loop !140

54:                                               ; preds = %7
  %55 = load i32, ptr %6, align 4, !tbaa !19
  call void @llvm.lifetime.end.p0(i64 4, ptr %6) #11
  call void @llvm.lifetime.end.p0(i64 4, ptr %5) #11
  ret i32 %55
}