; Function Attrs: nounwind uwtable
define dso_local range(i32 0, 2) i32 @report_unmatched_refs(ptr noundef readonly captures(none) %0, i32 noundef %1) local_unnamed_addr #0 {
  %3 = icmp sgt i32 %1, 0
  br i1 %3, label %.lr.ph.preheader, label %._crit_edge

.lr.ph.preheader:                                 ; preds = %2
  %wide.trip.count = zext nneg i32 %1 to i64
  br label %.lr.ph

.lr.ph:                                           ; preds = %.lr.ph.preheader, %17
  %indvars.iv = phi i64 [ 0, %.lr.ph.preheader ], [ %indvars.iv.next, %17 ]
  %.017 = phi i32 [ 0, %.lr.ph.preheader ], [ %.1, %17 ]
  %4 = getelementptr inbounds nuw ptr, ptr %0, i64 %indvars.iv
  %5 = load ptr, ptr %4, align 8, !tbaa !22
  %.not = icmp eq ptr %5, null
  br i1 %.not, label %17, label %6

6:                                                ; preds = %.lr.ph
  %7 = getelementptr inbounds nuw i8, ptr %5, i64 140
  %8 = load i32, ptr %7, align 4, !tbaa !15
  switch i32 %8, label %16 [
    i32 1, label %17
    i32 0, label %9
    i32 2, label %11
  ]

9:                                                ; preds = %6
  %10 = load i32, ptr @git_gettext_enabled, align 4, !tbaa !15
  %.not4.i = icmp eq i32 %10, 0
  br i1 %.not4.i, label %.sink.split, label %.sink.split.sink.split

11:                                               ; preds = %6
  %12 = load i32, ptr @git_gettext_enabled, align 4, !tbaa !15
  %.not4.i13 = icmp eq i32 %12, 0
  br i1 %.not4.i13, label %.sink.split, label %.sink.split.sink.split

.sink.split.sink.split:                           ; preds = %11, %9
  %.str.22.sink = phi ptr [ @.str.21, %9 ], [ @.str.22, %11 ]
  %13 = tail call ptr @dcgettext(ptr noundef null, ptr noundef nonnull %.str.22.sink, i32 noundef 5) #20
  %.pre = load ptr, ptr %4, align 8, !tbaa !22
  br label %.sink.split

.sink.split:                                      ; preds = %.sink.split.sink.split, %11, %9
  %.sink20 = phi ptr [ %5, %9 ], [ %5, %11 ], [ %.pre, %.sink.split.sink.split ]
  %.0.i14.sink = phi ptr [ @.str.21, %9 ], [ @.str.22, %11 ], [ %13, %.sink.split.sink.split ]
  %14 = getelementptr inbounds nuw i8, ptr %.sink20, i64 176
  %15 = tail call i32 (ptr, ...) @error(ptr noundef %.0.i14.sink, ptr noundef nonnull %14) #20
  br label %16

16:                                               ; preds = %.sink.split, %6
  br label %17

17:                                               ; preds = %6, %.lr.ph, %16
  %.1 = phi i32 [ 1, %16 ], [ %.017, %6 ], [ %.017, %.lr.ph ]
  %indvars.iv.next = add nuw nsw i64 %indvars.iv, 1
  %exitcond.not = icmp eq i64 %indvars.iv.next, %wide.trip.count
  br i1 %exitcond.not, label %._crit_edge, label %.lr.ph, !llvm.loop !151

._crit_edge:                                      ; preds = %17, %2
  %.0.lcssa = phi i32 [ 0, %2 ], [ %.1, %17 ]
  ret i32 %.0.lcssa
}